target datalayout = "e-m:e-p270:32:32-p271:32:32-p272:64:64-i64:64-i128:128-f80:128-n8:16:32:64-S128"
target triple = "x86_64-pc-linux-gnu"

; Function Attrs: mustprogress nounwind uwtable
define noundef i32 @_Z6FactorddPA2_dd(double noundef %0, double noundef %1, ptr noundef %2, double noundef %3) #0 {
  %5 = alloca i32, align 4
  %6 = alloca double, align 8
  %7 = alloca double, align 8
  %8 = alloca ptr, align 8
  %9 = alloca double, align 8
  store double %0, ptr %6, align 8
  store double %1, ptr %7, align 8
  store ptr %2, ptr %8, align 8
  store double %3, ptr %9, align 8
  %10 = load double, ptr %6, align 8
  %11 = call double @llvm.fabs.f64(double %10)
  %12 = load double, ptr %9, align 8
  %13 = fcmp ole double %11, %12
  br i1 %13, label %14, label %15

14:                                               ; preds = %4
  store i32 0, ptr %5, align 4
  br label %26

15:                                               ; preds = %4
  %16 = load double, ptr %7, align 8
  %17 = fneg double %16
  %18 = load double, ptr %6, align 8
  %19 = fdiv double %17, %18
  %20 = load ptr, ptr %8, align 8
  %21 = getelementptr inbounds [2 x double], ptr %20, i64 0
  %22 = getelementptr inbounds [2 x double], ptr %21, i64 0, i64 0
  store double %19, ptr %22, align 8
  %23 = load ptr, ptr %8, align 8
  %24 = getelementptr inbounds [2 x double], ptr %23, i64 0
  %25 = getelementptr inbounds [2 x double], ptr %24, i64 0, i64 1
  store double 0.000000e+00, ptr %25, align 8
  store i32 1, ptr %5, align 4
  br label %26

26:                                               ; preds = %15, %14
  %27 = load i32, ptr %5, align 4
  ret i32 %27
}