; Function Attrs: mustprogress nofree norecurse nosync nounwind willreturn memory(argmem: write) uwtable
define noundef range(i32 0, 2) i32 @_Z6FactorddPA2_dd(double noundef %0, double noundef %1, ptr noundef writeonly captures(none) %2, double noundef %3) local_unnamed_addr #0 {
  %5 = tail call double @llvm.fabs.f64(double %0)
  %6 = fcmp ugt double %5, %3
  br i1 %6, label %7, label %11

7:                                                ; preds = %4
  %8 = fneg double %1
  %9 = fdiv double %8, %0
  store double %9, ptr %2, align 8
  %10 = getelementptr inbounds nuw i8, ptr %2, i64 8
  store double 0.000000e+00, ptr %10, align 8
  br label %11

11:                                               ; preds = %4, %7
  %.0 = phi i32 [ 1, %7 ], [ 0, %4 ]
  ret i32 %.0
}